; Function Attrs: mustprogress uwtable
define void @_ZN6google8protobuf2io15FileInputStream22CopyingFileInputStreamC2Ei(ptr nocapture noundef nonnull align 8 dereferenceable(24) %this, i32 noundef %file_descriptor) unnamed_addr #3 align 2 personality ptr @__gxx_personality_v0 {
entry:
  store ptr getelementptr inbounds ({ [6 x ptr] }, ptr @_ZTVN6google8protobuf2io15FileInputStream22CopyingFileInputStreamE, i64 0, i32 0, i64 2), ptr %this, align 8
  %file_ = getelementptr inbounds i8, ptr %this, i64 8
  store i32 %file_descriptor, ptr %file_, align 8
  %close_on_delete_ = getelementptr inbounds i8, ptr %this, i64 12
  store i8 0, ptr %close_on_delete_, align 4
  %is_closed_ = getelementptr inbounds i8, ptr %this, i64 13
  store i8 0, ptr %is_closed_, align 1
  %errno_ = getelementptr inbounds i8, ptr %this, i64 16
  store i32 0, ptr %errno_, align 8
  %previous_seek_failed_ = getelementptr inbounds i8, ptr %this, i64 20
  store i8 0, ptr %previous_seek_failed_, align 4
  %call = tail call i32 (i32, i32, ...) @fcntl(i32 noundef %file_descriptor, i32 noundef 3)
  %and = and i32 %call, -2049
  %0 = load i32, ptr %file_, align 8
  %call5 = tail call i32 (i32, i32, ...) @fcntl(i32 noundef %0, i32 noundef 4, i32 noundef %and)
  ret void
}